target datalayout = "e-m:e-p270:32:32-p271:32:32-p272:64:64-i64:64-i128:128-f80:128-n8:16:32:64-S128"
target triple = "x86_64-pc-linux-gnu"

@_ZTIN7datalog13relation_baseE = external constant ptr
@_ZTIN7datalog13udoc_relationE = hidden constant { ptr, ptr, ptr } { ptr getelementptr inbounds (ptr, ptr @_ZTVN10__cxxabiv120__si_class_type_infoE, i64 2), ptr @_ZTSN7datalog13udoc_relationE, ptr @_ZTIN7datalog13relation_baseE }, align 8

; Function Attrs: mustprogress nounwind uwtable
define hidden noundef ptr @_ZN7datalog11udoc_plugin3getEPNS_13relation_baseE(ptr noundef %0) #6 align 2 {
  %2 = alloca ptr, align 8
  store ptr %0, ptr %2, align 8, !tbaa !22
  %3 = load ptr, ptr %2, align 8, !tbaa !22
  %4 = icmp ne ptr %3, null
  br i1 %4, label %5, label %13

5:                                                ; preds = %1
  %6 = load ptr, ptr %2, align 8, !tbaa !22
  %7 = icmp eq ptr %6, null
  br i1 %7, label %10, label %8

8:                                                ; preds = %5
  %9 = call ptr @__dynamic_cast(ptr %6, ptr @_ZTIN7datalog13relation_baseE, ptr @_ZTIN7datalog13udoc_relationE, i64 0) #3
  br label %11

10:                                               ; preds = %5
  br label %11

11:                                               ; preds = %10, %8
  %12 = phi ptr [ %9, %8 ], [ null, %10 ]
  br label %14

13:                                               ; preds = %1
  br label %14

14:                                               ; preds = %13, %11
  %15 = phi ptr [ %12, %11 ], [ null, %13 ]
  ret ptr %15
}