; Function Attrs: mustprogress nofree nounwind willreturn memory(read) uwtable
define hidden noundef ptr @_ZN7datalog11udoc_plugin3getEPNS_13relation_baseE(ptr noundef readonly %0) local_unnamed_addr #11 align 2 {
  %.not = icmp eq ptr %0, null
  br i1 %.not, label %4, label %2

2:                                                ; preds = %1
  %3 = tail call ptr @__dynamic_cast(ptr nonnull %0, ptr nonnull @_ZTIN7datalog13relation_baseE, ptr nonnull @_ZTIN7datalog13udoc_relationE, i64 0) #24
  br label %4

4:                                                ; preds = %1, %2
  %5 = phi ptr [ %3, %2 ], [ null, %1 ]
  ret ptr %5
}